target datalayout = "e-m:e-p270:32:32-p271:32:32-p272:64:64-i64:64-i128:128-f80:128-n8:16:32:64-S128"
target triple = "x86_64-pc-linux-gnu"

%struct.BackendGlobalData = type <{ ptr, ptr, i8, i8, i8, i8, i8, i8, i8, i8, i8, [3 x i8], i32, ptr, ptr, ptr, ptr, ptr, ptr, ptr, ptr, ptr, ptr, ptr, ptr, ptr, i32, %struct.jvmtiCapabilities, i8, [3 x i8], %struct.jvmtiEventCallbacks, ptr, ptr, ptr, ptr, ptr, ptr, ptr, i32, [4 x i8], ptr, i64, i32, [4 x i8], ptr, i32, i32, i8, i8, [6 x i8] }>
%struct.jvmtiCapabilities = type { i64, i64 }
%struct.jvmtiEventCallbacks = type { ptr, ptr, ptr, ptr, ptr, ptr, ptr, ptr, ptr, ptr, ptr, ptr, ptr, ptr, ptr, ptr, ptr, ptr, ptr, ptr, ptr, ptr, ptr, ptr, ptr, ptr, ptr, ptr, ptr, ptr, ptr, ptr, ptr, ptr, ptr, ptr, ptr, ptr, ptr }
%struct.jvmtiInterface_1_ = type { ptr, ptr, ptr, ptr, ptr, ptr, ptr, ptr, ptr, ptr, ptr, ptr, ptr, ptr, ptr, ptr, ptr, ptr, ptr, ptr, ptr, ptr, ptr, ptr, ptr, ptr, ptr, ptr, ptr, ptr, ptr, ptr, ptr, ptr, ptr, ptr, ptr, ptr, ptr, ptr, ptr, ptr, ptr, ptr, ptr, ptr, ptr, ptr, ptr, ptr, ptr, ptr, ptr, ptr, ptr, ptr, ptr, ptr, ptr, ptr, ptr, ptr, ptr, ptr, ptr, ptr, ptr, ptr, ptr, ptr, ptr, ptr, ptr, ptr, ptr, ptr, ptr, ptr, ptr, ptr, ptr, ptr, ptr, ptr, ptr, ptr, ptr, ptr, ptr, ptr, ptr, ptr, ptr, ptr, ptr, ptr, ptr, ptr, ptr, ptr, ptr, ptr, ptr, ptr, ptr, ptr, ptr, ptr, ptr, ptr, ptr, ptr, ptr, ptr, ptr, ptr, ptr, ptr, ptr, ptr, ptr, ptr, ptr, ptr, ptr, ptr, ptr, ptr, ptr, ptr, ptr, ptr, ptr, ptr, ptr, ptr, ptr, ptr, ptr, ptr, ptr, ptr, ptr, ptr, ptr, ptr, ptr, ptr, ptr, ptr, ptr, ptr, ptr, ptr, ptr, ptr }
%struct.EventInfo = type { i32, ptr, i8, ptr, ptr, i64, ptr, %union.anon }
%union.anon = type { %struct.anon.0 }
%struct.anon.0 = type { ptr, ptr, i8, %union.jvalue }
%union.jvalue = type { i64 }

@stderr = external global ptr, align 8
@.str = private unnamed_addr constant [17 x i8] c"JDWP exit error \00", align 1
@.str.1 = private unnamed_addr constant [2 x i8] c"\0A\00", align 1
@.str.2 = private unnamed_addr constant [19 x i8] c"%s(%d): %s [%s:%d]\00", align 1
@.str.4 = private unnamed_addr constant [55 x i8] c"src/jdk.jdwp.agent/share/native/libjdwp/eventHandler.c\00", align 1
@gdata = external global ptr, align 8
@.str.6 = private unnamed_addr constant [42 x i8] c"Can't get jclass for a methodID, invalid?\00", align 1
@active_callbacks = internal global i32 0, align 4
@vm_death_callback_active = internal global i8 0, align 1
@callbackLock = internal global ptr null, align 8
@callbackBlock = internal global ptr null, align 8
@.str.14 = private unnamed_addr constant [6 x i8] c"JVMTI\00", align 1
@.str.15 = private unnamed_addr constant [5 x i8] c"%s()\00", align 1
@.str.25 = private unnamed_addr constant [5 x i8] c"MISC\00", align 1
@.str.28 = private unnamed_addr constant [3 x i8] c"CB\00", align 1
@.str.30 = private unnamed_addr constant [35 x i8] c"Problems tracking active callbacks\00", align 1
@.str.64 = private unnamed_addr constant [17 x i8] c"GetFrameLocation\00", align 1
@.str.66 = private unnamed_addr constant [37 x i8] c"cbMonitorContendedEntered: thread=%p\00", align 1
@.str.67 = private unnamed_addr constant [30 x i8] c"END cbMonitorContendedEntered\00", align 1

; Function Attrs: nounwind uwtable
define hidden ptr @getMethodClass(ptr noundef %0, ptr noundef %1) #0 {
  %3 = alloca ptr, align 8
  %4 = alloca ptr, align 8
  %5 = alloca ptr, align 8
  %6 = alloca ptr, align 8
  %7 = alloca i32, align 4
  store ptr %0, ptr %4, align 8
  store ptr %1, ptr %5, align 8
  store ptr null, ptr %6, align 8
  %8 = load ptr, ptr %5, align 8
  %9 = icmp eq ptr %8, null
  br i1 %9, label %10, label %11

10:                                               ; preds = %2
  store ptr null, ptr %3, align 8
  br label %24

11:                                               ; preds = %2
  %12 = load ptr, ptr %5, align 8
  %13 = call i32 @methodClass(ptr noundef %12, ptr noundef %6)
  store i32 %13, ptr %7, align 4
  %14 = load i32, ptr %7, align 4
  %15 = icmp ne i32 %14, 0
  br i1 %15, label %16, label %22

16:                                               ; preds = %11
  %17 = load ptr, ptr @stderr, align 8
  %18 = load i32, ptr %7, align 4
  %19 = call ptr @jvmtiErrorText(i32 noundef %18)
  %20 = load i32, ptr %7, align 4
  call void (ptr, ptr, ptr, ptr, ...) @print_message(ptr noundef %17, ptr noundef @.str, ptr noundef @.str.1, ptr noundef @.str.2, ptr noundef %19, i32 noundef %20, ptr noundef @.str.6, ptr noundef @.str.4, i32 noundef 728)
  %21 = load i32, ptr %7, align 4
  call void @debugInit_exit(i32 noundef %21, ptr noundef @.str.6)
  store ptr null, ptr %3, align 8
  br label %24

22:                                               ; preds = %11
  %23 = load ptr, ptr %6, align 8
  store ptr %23, ptr %3, align 8
  br label %24

24:                                               ; preds = %22, %16, %10
  %25 = load ptr, ptr %3, align 8
  ret ptr %25
}

; Function Attrs: nounwind uwtable
define internal void @cbMonitorContendedEntered(ptr noundef %0, ptr noundef %1, ptr noundef %2, ptr noundef %3) #0 {
  %5 = alloca ptr, align 8
  %6 = alloca ptr, align 8
  %7 = alloca ptr, align 8
  %8 = alloca ptr, align 8
  %9 = alloca %struct.EventInfo, align 8
  %10 = alloca i32, align 4
  %11 = alloca ptr, align 8
  %12 = alloca i64, align 8
  %13 = alloca i8, align 1
  store ptr %0, ptr %5, align 8
  store ptr %1, ptr %6, align 8
  store ptr %2, ptr %7, align 8
  store ptr %3, ptr %8, align 8
  %14 = load ptr, ptr @gdata, align 8
  %15 = getelementptr inbounds %struct.BackendGlobalData, ptr %14, i32 0, i32 38
  %16 = load i32, ptr %15, align 8
  %17 = and i32 %16, 64
  %18 = icmp ne i32 %17, 0
  br i1 %18, label %19, label %21

19:                                               ; preds = %4
  call void @log_message_begin(ptr noundef @.str.28, ptr noundef @.str.4, i32 noundef 1130)
  %20 = load ptr, ptr %7, align 8
  call void (ptr, ...) @log_message_end(ptr noundef @.str.66, ptr noundef %20)
  br label %22

21:                                               ; preds = %4
  br label %22

22:                                               ; preds = %21, %19
  store i8 1, ptr %13, align 1
  %23 = load ptr, ptr @callbackLock, align 8
  call void @debugMonitorEnter(ptr noundef %23)
  %24 = load i8, ptr @vm_death_callback_active, align 1
  %25 = icmp ne i8 %24, 0
  br i1 %25, label %26, label %30

26:                                               ; preds = %22
  %27 = load ptr, ptr @callbackLock, align 8
  call void @debugMonitorExit(ptr noundef %27)
  %28 = load ptr, ptr @callbackBlock, align 8
  call void @debugMonitorEnter(ptr noundef %28)
  %29 = load ptr, ptr @callbackBlock, align 8
  call void @debugMonitorExit(ptr noundef %29)
  br label %34

30:                                               ; preds = %22
  %31 = load i32, ptr @active_callbacks, align 4
  %32 = add nsw i32 %31, 1
  store i32 %32, ptr @active_callbacks, align 4
  store i8 0, ptr %13, align 1
  %33 = load ptr, ptr @callbackLock, align 8
  call void @debugMonitorExit(ptr noundef %33)
  br label %34

34:                                               ; preds = %30, %26
  %35 = load i8, ptr %13, align 1
  %36 = icmp ne i8 %35, 0
  br i1 %36, label %105, label %37

37:                                               ; preds = %34
  call void @llvm.memset.p0.i64(ptr align 8 %9, i8 0, i64 88, i1 false)
  %38 = getelementptr inbounds %struct.EventInfo, ptr %9, i32 0, i32 0
  store i32 16, ptr %38, align 8
  %39 = load ptr, ptr %7, align 8
  %40 = getelementptr inbounds %struct.EventInfo, ptr %9, i32 0, i32 1
  store ptr %39, ptr %40, align 8
  %41 = load ptr, ptr %8, align 8
  %42 = getelementptr inbounds %struct.EventInfo, ptr %9, i32 0, i32 6
  store ptr %41, ptr %42, align 8
  %43 = load ptr, ptr @gdata, align 8
  %44 = getelementptr inbounds %struct.BackendGlobalData, ptr %43, i32 0, i32 38
  %45 = load i32, ptr %44, align 8
  %46 = and i32 %45, 4
  %47 = icmp ne i32 %46, 0
  br i1 %47, label %48, label %49

48:                                               ; preds = %37
  call void @log_message_begin(ptr noundef @.str.14, ptr noundef @.str.4, i32 noundef 1138)
  call void (ptr, ...) @log_message_end(ptr noundef @.str.15, ptr noundef @.str.64)
  br label %50

49:                                               ; preds = %37
  br label %50

50:                                               ; preds = %49, %48
  %51 = load ptr, ptr @gdata, align 8
  %52 = getelementptr inbounds %struct.BackendGlobalData, ptr %51, i32 0, i32 0
  %53 = load ptr, ptr %52, align 8
  %54 = load ptr, ptr %53, align 8
  %55 = getelementptr inbounds %struct.jvmtiInterface_1_, ptr %54, i32 0, i32 18
  %56 = load ptr, ptr %55, align 8
  %57 = load ptr, ptr @gdata, align 8
  %58 = getelementptr inbounds %struct.BackendGlobalData, ptr %57, i32 0, i32 0
  %59 = load ptr, ptr %58, align 8
  %60 = load ptr, ptr %7, align 8
  %61 = call i32 %56(ptr noundef %59, ptr noundef %60, i32 noundef 0, ptr noundef %11, ptr noundef %12)
  store i32 %61, ptr %10, align 4
  %62 = load i32, ptr %10, align 4
  %63 = icmp eq i32 %62, 0
  br i1 %63, label %64, label %73

64:                                               ; preds = %50
  %65 = load i64, ptr %12, align 8
  %66 = getelementptr inbounds %struct.EventInfo, ptr %9, i32 0, i32 5
  store i64 %65, ptr %66, align 8
  %67 = load ptr, ptr %11, align 8
  %68 = getelementptr inbounds %struct.EventInfo, ptr %9, i32 0, i32 4
  store ptr %67, ptr %68, align 8
  %69 = load ptr, ptr %5, align 8
  %70 = load ptr, ptr %11, align 8
  %71 = call ptr @getMethodClass(ptr noundef %69, ptr noundef %70)
  %72 = getelementptr inbounds %struct.EventInfo, ptr %9, i32 0, i32 3
  store ptr %71, ptr %72, align 8
  br label %75

73:                                               ; preds = %50
  %74 = getelementptr inbounds %struct.EventInfo, ptr %9, i32 0, i32 5
  store i64 -1, ptr %74, align 8
  br label %75

75:                                               ; preds = %73, %64
  %76 = load ptr, ptr %6, align 8
  call void @event_callback(ptr noundef %76, ptr noundef %9)
  %77 = load ptr, ptr @callbackLock, align 8
  call void @debugMonitorEnter(ptr noundef %77)
  %78 = load i32, ptr @active_callbacks, align 4
  %79 = add nsw i32 %78, -1
  store i32 %79, ptr @active_callbacks, align 4
  %80 = load i32, ptr @active_callbacks, align 4
  %81 = icmp slt i32 %80, 0
  br i1 %81, label %82, label %85

82:                                               ; preds = %75
  %83 = load ptr, ptr @stderr, align 8
  %84 = call ptr @jvmtiErrorText(i32 noundef 0)
  call void (ptr, ptr, ptr, ptr, ...) @print_message(ptr noundef %83, ptr noundef @.str, ptr noundef @.str.1, ptr noundef @.str.2, ptr noundef %84, i32 noundef 0, ptr noundef @.str.30, ptr noundef @.str.4, i32 noundef 1148)
  call void @debugInit_exit(i32 noundef 0, ptr noundef @.str.30)
  br label %85

85:                                               ; preds = %82, %75
  %86 = load i8, ptr @vm_death_callback_active, align 1
  %87 = icmp ne i8 %86, 0
  br i1 %87, label %88, label %97

88:                                               ; preds = %85
  %89 = load i32, ptr @active_callbacks, align 4
  %90 = icmp eq i32 %89, 0
  br i1 %90, label %91, label %93

91:                                               ; preds = %88
  %92 = load ptr, ptr @callbackLock, align 8
  call void @debugMonitorNotifyAll(ptr noundef %92)
  br label %93

93:                                               ; preds = %91, %88
  %94 = load ptr, ptr @callbackLock, align 8
  call void @debugMonitorExit(ptr noundef %94)
  %95 = load ptr, ptr @callbackBlock, align 8
  call void @debugMonitorEnter(ptr noundef %95)
  %96 = load ptr, ptr @callbackBlock, align 8
  call void @debugMonitorExit(ptr noundef %96)
  br label %104

97:                                               ; preds = %85
  %98 = load i32, ptr @active_callbacks, align 4
  %99 = icmp eq i32 %98, 0
  br i1 %99, label %100, label %102

100:                                              ; preds = %97
  %101 = load ptr, ptr @callbackLock, align 8
  call void @debugMonitorNotifyAll(ptr noundef %101)
  br label %102

102:                                              ; preds = %100, %97
  %103 = load ptr, ptr @callbackLock, align 8
  call void @debugMonitorExit(ptr noundef %103)
  br label %104

104:                                              ; preds = %102, %93
  br label %105

105:                                              ; preds = %104, %34
  %106 = load ptr, ptr @gdata, align 8
  %107 = getelementptr inbounds %struct.BackendGlobalData, ptr %106, i32 0, i32 38
  %108 = load i32, ptr %107, align 8
  %109 = and i32 %108, 8
  %110 = icmp ne i32 %109, 0
  br i1 %110, label %111, label %112

111:                                              ; preds = %105
  call void @log_message_begin(ptr noundef @.str.25, ptr noundef @.str.4, i32 noundef 1150)
  call void (ptr, ...) @log_message_end(ptr noundef @.str.67)
  br label %113

112:                                              ; preds = %105
  br label %113

113:                                              ; preds = %112, %111
  ret void
}