; Function Attrs: nounwind uwtable
define internal void @cbMonitorContendedEntered(ptr nocapture readnone %0, ptr noundef %1, ptr noundef %2, ptr noundef %3) #0 {
  %5 = alloca ptr, align 8
  %6 = alloca %struct.EventInfo, align 8
  %7 = alloca ptr, align 8
  %8 = alloca i64, align 8
  %9 = load ptr, ptr @gdata, align 8
  %10 = getelementptr inbounds i8, ptr %9, i64 528
  %11 = load i32, ptr %10, align 8
  %12 = and i32 %11, 64
  %.not = icmp eq i32 %12, 0
  br i1 %.not, label %14, label %13

13:                                               ; preds = %4
  tail call void @log_message_begin(ptr noundef nonnull @.str.28, ptr noundef nonnull @.str.4, i32 noundef 1130) #6
  tail call void (ptr, ...) @log_message_end(ptr noundef nonnull @.str.66, ptr noundef %2) #6
  br label %14

14:                                               ; preds = %4, %13
  %15 = load ptr, ptr @callbackLock, align 8
  tail call void @debugMonitorEnter(ptr noundef %15) #6
  %.b7 = load i1, ptr @vm_death_callback_active, align 1
  br i1 %.b7, label %.thread, label %19

.thread:                                          ; preds = %14
  %16 = load ptr, ptr @callbackLock, align 8
  tail call void @debugMonitorExit(ptr noundef %16) #6
  %17 = load ptr, ptr @callbackBlock, align 8
  tail call void @debugMonitorEnter(ptr noundef %17) #6
  %18 = load ptr, ptr @callbackBlock, align 8
  tail call void @debugMonitorExit(ptr noundef %18) #6
  br label %77

19:                                               ; preds = %14
  %20 = load i32, ptr @active_callbacks, align 4
  %21 = add nsw i32 %20, 1
  store i32 %21, ptr @active_callbacks, align 4
  %22 = load ptr, ptr @callbackLock, align 8
  tail call void @debugMonitorExit(ptr noundef %22) #6
  call void @llvm.memset.p0.i64(ptr noundef nonnull align 8 dereferenceable(88) %6, i8 0, i64 88, i1 false)
  store i32 16, ptr %6, align 8
  %23 = getelementptr inbounds i8, ptr %6, i64 8
  store ptr %2, ptr %23, align 8
  %24 = getelementptr inbounds i8, ptr %6, i64 48
  store ptr %3, ptr %24, align 8
  %25 = load ptr, ptr @gdata, align 8
  %26 = getelementptr inbounds i8, ptr %25, i64 528
  %27 = load i32, ptr %26, align 8
  %28 = and i32 %27, 4
  %.not9 = icmp eq i32 %28, 0
  br i1 %.not9, label %30, label %29

29:                                               ; preds = %19
  tail call void @log_message_begin(ptr noundef nonnull @.str.14, ptr noundef nonnull @.str.4, i32 noundef 1138) #6
  tail call void (ptr, ...) @log_message_end(ptr noundef nonnull @.str.15, ptr noundef nonnull @.str.64) #6
  %.pre = load ptr, ptr @gdata, align 8
  br label %30

30:                                               ; preds = %19, %29
  %31 = phi ptr [ %25, %19 ], [ %.pre, %29 ]
  %32 = load ptr, ptr %31, align 8
  %33 = load ptr, ptr %32, align 8
  %34 = getelementptr inbounds i8, ptr %33, i64 144
  %35 = load ptr, ptr %34, align 8
  %36 = call i32 %35(ptr noundef nonnull %32, ptr noundef %2, i32 noundef 0, ptr noundef nonnull %7, ptr noundef nonnull %8) #6
  %37 = icmp eq i32 %36, 0
  br i1 %37, label %38, label %52

38:                                               ; preds = %30
  %39 = load i64, ptr %8, align 8
  %40 = getelementptr inbounds i8, ptr %6, i64 40
  store i64 %39, ptr %40, align 8
  %41 = load ptr, ptr %7, align 8
  %42 = getelementptr inbounds i8, ptr %6, i64 32
  store ptr %41, ptr %42, align 8
  call void @llvm.lifetime.start.p0(i64 8, ptr nonnull %5)
  store ptr null, ptr %5, align 8
  %43 = icmp eq ptr %41, null
  br i1 %43, label %getMethodClass.exit, label %44

44:                                               ; preds = %38
  %45 = call i32 @methodClass(ptr noundef nonnull %41, ptr noundef nonnull %5) #6
  %.not.i = icmp eq i32 %45, 0
  br i1 %.not.i, label %49, label %46

46:                                               ; preds = %44
  %47 = load ptr, ptr @stderr, align 8
  %48 = call ptr @jvmtiErrorText(i32 noundef %45) #6
  call void (ptr, ptr, ptr, ptr, ...) @print_message(ptr noundef %47, ptr noundef nonnull @.str, ptr noundef nonnull @.str.1, ptr noundef nonnull @.str.2, ptr noundef %48, i32 noundef %45, ptr noundef nonnull @.str.6, ptr noundef nonnull @.str.4, i32 noundef 728) #6
  call void @debugInit_exit(i32 noundef %45, ptr noundef nonnull @.str.6) #6
  br label %getMethodClass.exit

49:                                               ; preds = %44
  %50 = load ptr, ptr %5, align 8
  br label %getMethodClass.exit

getMethodClass.exit:                              ; preds = %38, %46, %49
  %.0.i = phi ptr [ null, %46 ], [ %50, %49 ], [ null, %38 ]
  call void @llvm.lifetime.end.p0(i64 8, ptr nonnull %5)
  %51 = getelementptr inbounds i8, ptr %6, i64 24
  store ptr %.0.i, ptr %51, align 8
  br label %54

52:                                               ; preds = %30
  %53 = getelementptr inbounds i8, ptr %6, i64 40
  store i64 -1, ptr %53, align 8
  br label %54

54:                                               ; preds = %52, %getMethodClass.exit
  call fastcc void @event_callback(ptr noundef %1, ptr noundef nonnull %6)
  %55 = load ptr, ptr @callbackLock, align 8
  call void @debugMonitorEnter(ptr noundef %55) #6
  %56 = load i32, ptr @active_callbacks, align 4
  %57 = add nsw i32 %56, -1
  store i32 %57, ptr @active_callbacks, align 4
  %58 = icmp slt i32 %56, 1
  br i1 %58, label %59, label %62

59:                                               ; preds = %54
  %60 = load ptr, ptr @stderr, align 8
  %61 = call ptr @jvmtiErrorText(i32 noundef 0) #6
  call void (ptr, ptr, ptr, ptr, ...) @print_message(ptr noundef %60, ptr noundef nonnull @.str, ptr noundef nonnull @.str.1, ptr noundef nonnull @.str.2, ptr noundef %61, i32 noundef 0, ptr noundef nonnull @.str.30, ptr noundef nonnull @.str.4, i32 noundef 1148) #6
  call void @debugInit_exit(i32 noundef 0, ptr noundef nonnull @.str.30) #6
  br label %62

62:                                               ; preds = %59, %54
  %.b = load i1, ptr @vm_death_callback_active, align 1
  %63 = load i32, ptr @active_callbacks, align 4
  %64 = icmp eq i32 %63, 0
  br i1 %.b, label %65, label %72

65:                                               ; preds = %62
  br i1 %64, label %66, label %68

66:                                               ; preds = %65
  %67 = load ptr, ptr @callbackLock, align 8
  call void @debugMonitorNotifyAll(ptr noundef %67) #6
  br label %68

68:                                               ; preds = %66, %65
  %69 = load ptr, ptr @callbackLock, align 8
  call void @debugMonitorExit(ptr noundef %69) #6
  %70 = load ptr, ptr @callbackBlock, align 8
  call void @debugMonitorEnter(ptr noundef %70) #6
  %71 = load ptr, ptr @callbackBlock, align 8
  call void @debugMonitorExit(ptr noundef %71) #6
  br label %77

72:                                               ; preds = %62
  br i1 %64, label %73, label %75

73:                                               ; preds = %72
  %74 = load ptr, ptr @callbackLock, align 8
  call void @debugMonitorNotifyAll(ptr noundef %74) #6
  br label %75

75:                                               ; preds = %73, %72
  %76 = load ptr, ptr @callbackLock, align 8
  call void @debugMonitorExit(ptr noundef %76) #6
  br label %77

77:                                               ; preds = %.thread, %68, %75
  %78 = load ptr, ptr @gdata, align 8
  %79 = getelementptr inbounds i8, ptr %78, i64 528
  %80 = load i32, ptr %79, align 8
  %81 = and i32 %80, 8
  %.not10 = icmp eq i32 %81, 0
  br i1 %.not10, label %83, label %82

82:                                               ; preds = %77
  call void @log_message_begin(ptr noundef nonnull @.str.25, ptr noundef nonnull @.str.4, i32 noundef 1150) #6
  call void (ptr, ...) @log_message_end(ptr noundef nonnull @.str.67) #6
  br label %83

83:                                               ; preds = %77, %82
  ret void
}